target datalayout = "e-m:e-p270:32:32-p271:32:32-p272:64:64-i64:64-i128:128-f80:128-n8:16:32:64-S128"
target triple = "x86_64-pc-linux-gnu"

%union.git_hash_ctx = type { %struct.SHA1_CTX }
%struct.SHA1_CTX = type { i64, [5 x i32], [64 x i8], i32, i32, i32, i32, i32, ptr, [5 x i32], [5 x i32], [80 x i32], [80 x i32], [80 x [5 x i32]] }
%struct.git_hash_algo = type { ptr, i32, i64, i64, i64, ptr, ptr, ptr, ptr, ptr, ptr, ptr, ptr, ptr }
%struct.repository = type { ptr, ptr, ptr, ptr, ptr, %struct.strmap, %struct.strmap, %struct.repo_path_cache, ptr, ptr, ptr, ptr, %struct.repo_settings, ptr, ptr, ptr, ptr, ptr, ptr, i32, i32, i32, ptr, ptr, i32, i32, i8 }
%struct.strmap = type { %struct.hashmap, ptr, i8 }
%struct.hashmap = type { ptr, ptr, ptr, i32, i32, i32, i32, i8 }
%struct.repo_path_cache = type { ptr, ptr, ptr, ptr, ptr, ptr, ptr }
%struct.repo_settings = type { i32, i32, i32, i32, i32, i32, i32, i32, i32, i32, i32, i32, ptr, i32, i32, i32, i32, i32, i32, i32, i64, i64, i64 }
%struct.git_zstream = type { %struct.z_stream_s, i64, i64, i64, i64, ptr, ptr }
%struct.z_stream_s = type { ptr, i32, i64, ptr, i32, i64, ptr, ptr, ptr, ptr, ptr, i32, i64, i64 }

@dry_run = internal global i32 0, align 4
@recover = internal global i32 0, align 4
@buffer = internal global [4096 x i8] zeroinitializer, align 16
@len = internal global i32 0, align 4
@the_repository = external global ptr, align 8
@ctx = internal global %union.git_hash_ctx zeroinitializer, align 8
@offset = internal global i32 0, align 4
@has_errors = internal global i32 0, align 4
@.str.16 = private unnamed_addr constant [25 x i8] c"builtin/unpack-objects.c\00", align 1
@.str.20 = private unnamed_addr constant [20 x i8] c"inflate returned %d\00", align 1
@.str.36 = private unnamed_addr constant [21 x i8] c"cannot fill %d bytes\00", align 1
@.str.37 = private unnamed_addr constant [10 x i8] c"early EOF\00", align 1
@.str.38 = private unnamed_addr constant [20 x i8] c"read error on input\00", align 1

; Function Attrs: inlinehint nounwind uwtable
define internal i32 @const_error() #3 {
  ret i32 -1
}

; Function Attrs: nounwind uwtable
define internal ptr @fill(i32 noundef %0) #0 {
  %2 = alloca ptr, align 8
  %3 = alloca i32, align 4
  %4 = alloca i64, align 8
  store i32 %0, ptr %3, align 4, !tbaa !4
  %5 = load i32, ptr %3, align 4, !tbaa !4
  %6 = load i32, ptr @len, align 4, !tbaa !4
  %7 = icmp ule i32 %5, %6
  br i1 %7, label %8, label %12

8:                                                ; preds = %1
  %9 = load i32, ptr @offset, align 4, !tbaa !4
  %10 = zext i32 %9 to i64
  %11 = getelementptr inbounds nuw i8, ptr @buffer, i64 %10
  store ptr %11, ptr %2, align 8
  br label %61

12:                                               ; preds = %1
  %13 = load i32, ptr %3, align 4, !tbaa !4
  %14 = sext i32 %13 to i64
  %15 = icmp ugt i64 %14, 4096
  br i1 %15, label %16, label %18

16:                                               ; preds = %12
  %17 = load i32, ptr %3, align 4, !tbaa !4
  call void (ptr, ...) @die(ptr noundef @.str.36, i32 noundef %17) #12
  unreachable

18:                                               ; preds = %12
  %19 = load i32, ptr @offset, align 4, !tbaa !4
  %20 = icmp ne i32 %19, 0
  br i1 %20, label %21, label %34

21:                                               ; preds = %18
  %22 = load ptr, ptr @the_repository, align 8, !tbaa !13
  %23 = getelementptr inbounds nuw %struct.repository, ptr %22, i32 0, i32 17
  %24 = load ptr, ptr %23, align 8, !tbaa !20
  %25 = getelementptr inbounds nuw %struct.git_hash_algo, ptr %24, i32 0, i32 7
  %26 = load ptr, ptr %25, align 8, !tbaa !41
  %27 = load i32, ptr @offset, align 4, !tbaa !4
  %28 = zext i32 %27 to i64
  call void %26(ptr noundef @ctx, ptr noundef @buffer, i64 noundef %28)
  %29 = load i32, ptr @offset, align 4, !tbaa !4
  %30 = zext i32 %29 to i64
  %31 = getelementptr inbounds nuw i8, ptr @buffer, i64 %30
  %32 = load i32, ptr @len, align 4, !tbaa !4
  %33 = zext i32 %32 to i64
  call void @llvm.memmove.p0.p0.i64(ptr align 16 @buffer, ptr align 1 %31, i64 %33, i1 false)
  store i32 0, ptr @offset, align 4, !tbaa !4
  br label %34

34:                                               ; preds = %21, %18
  br label %35

35:                                               ; preds = %56, %34
  call void @llvm.lifetime.start.p0(i64 8, ptr %4) #10
  %36 = load i32, ptr @len, align 4, !tbaa !4
  %37 = zext i32 %36 to i64
  %38 = getelementptr inbounds nuw i8, ptr @buffer, i64 %37
  %39 = load i32, ptr @len, align 4, !tbaa !4
  %40 = zext i32 %39 to i64
  %41 = sub i64 4096, %40
  %42 = call i64 @xread(i32 noundef 0, ptr noundef %38, i64 noundef %41)
  store i64 %42, ptr %4, align 8, !tbaa !16
  %43 = load i64, ptr %4, align 8, !tbaa !16
  %44 = icmp sle i64 %43, 0
  br i1 %44, label %45, label %50

45:                                               ; preds = %35
  %46 = load i64, ptr %4, align 8, !tbaa !16
  %47 = icmp ne i64 %46, 0
  br i1 %47, label %49, label %48

48:                                               ; preds = %45
  call void (ptr, ...) @die(ptr noundef @.str.37) #12
  unreachable

49:                                               ; preds = %45
  call void (ptr, ...) @die_errno(ptr noundef @.str.38) #12
  unreachable

50:                                               ; preds = %35
  %51 = load i64, ptr %4, align 8, !tbaa !16
  %52 = load i32, ptr @len, align 4, !tbaa !4
  %53 = zext i32 %52 to i64
  %54 = add nsw i64 %53, %51
  %55 = trunc i64 %54 to i32
  store i32 %55, ptr @len, align 4, !tbaa !4
  call void @llvm.lifetime.end.p0(i64 8, ptr %4) #10
  br label %56

56:                                               ; preds = %50
  %57 = load i32, ptr @len, align 4, !tbaa !4
  %58 = load i32, ptr %3, align 4, !tbaa !4
  %59 = icmp ult i32 %57, %58
  br i1 %59, label %35, label %60, !llvm.loop !60

60:                                               ; preds = %56
  store ptr @buffer, ptr %2, align 8
  br label %61

61:                                               ; preds = %60, %8
  %62 = load ptr, ptr %2, align 8
  ret ptr %62
}

; Function Attrs: nounwind uwtable
define internal ptr @get_data(i64 noundef %0) #0 {
  %2 = alloca i64, align 8
  %3 = alloca %struct.git_zstream, align 8
  %4 = alloca i64, align 8
  %5 = alloca ptr, align 8
  %6 = alloca i32, align 4
  %7 = alloca i32, align 4
  store i64 %0, ptr %2, align 8, !tbaa !16
  call void @llvm.lifetime.start.p0(i64 160, ptr %3) #10
  call void @llvm.lifetime.start.p0(i64 8, ptr %4) #10
  %8 = load i32, ptr @dry_run, align 4, !tbaa !4
  %9 = icmp ne i32 %8, 0
  br i1 %9, label %10, label %14

10:                                               ; preds = %1
  %11 = load i64, ptr %2, align 8, !tbaa !16
  %12 = icmp ugt i64 %11, 8192
  br i1 %12, label %13, label %14

13:                                               ; preds = %10
  br label %16

14:                                               ; preds = %10, %1
  %15 = load i64, ptr %2, align 8, !tbaa !16
  br label %16

16:                                               ; preds = %14, %13
  %17 = phi i64 [ 8192, %13 ], [ %15, %14 ]
  store i64 %17, ptr %4, align 8, !tbaa !16
  call void @llvm.lifetime.start.p0(i64 8, ptr %5) #10
  %18 = load i64, ptr %4, align 8, !tbaa !16
  %19 = call ptr @xmallocz(i64 noundef %18)
  store ptr %19, ptr %5, align 8, !tbaa !45
  call void @llvm.memset.p0.i64(ptr align 8 %3, i8 0, i64 160, i1 false)
  %20 = load ptr, ptr %5, align 8, !tbaa !45
  %21 = getelementptr inbounds nuw %struct.git_zstream, ptr %3, i32 0, i32 6
  store ptr %20, ptr %21, align 8, !tbaa !84
  %22 = load i64, ptr %4, align 8, !tbaa !16
  %23 = getelementptr inbounds nuw %struct.git_zstream, ptr %3, i32 0, i32 2
  store i64 %22, ptr %23, align 8, !tbaa !88
  %24 = call ptr @fill(i32 noundef 1)
  %25 = getelementptr inbounds nuw %struct.git_zstream, ptr %3, i32 0, i32 5
  store ptr %24, ptr %25, align 8, !tbaa !89
  %26 = load i32, ptr @len, align 4, !tbaa !4
  %27 = zext i32 %26 to i64
  %28 = getelementptr inbounds nuw %struct.git_zstream, ptr %3, i32 0, i32 1
  store i64 %27, ptr %28, align 8, !tbaa !90
  call void @git_inflate_init(ptr noundef %3)
  br label %29

29:                                               ; preds = %91, %16
  call void @llvm.lifetime.start.p0(i64 4, ptr %6) #10
  %30 = call i32 @git_inflate(ptr noundef %3, i32 noundef 0)
  store i32 %30, ptr %6, align 4, !tbaa !4
  %31 = load i32, ptr @len, align 4, !tbaa !4
  %32 = zext i32 %31 to i64
  %33 = getelementptr inbounds nuw %struct.git_zstream, ptr %3, i32 0, i32 1
  %34 = load i64, ptr %33, align 8, !tbaa !90
  %35 = sub i64 %32, %34
  %36 = trunc i64 %35 to i32
  call void @use(i32 noundef %36)
  %37 = getelementptr inbounds nuw %struct.git_zstream, ptr %3, i32 0, i32 4
  %38 = load i64, ptr %37, align 8, !tbaa !91
  %39 = load i64, ptr %2, align 8, !tbaa !16
  %40 = icmp eq i64 %38, %39
  br i1 %40, label %41, label %45

41:                                               ; preds = %29
  %42 = load i32, ptr %6, align 4, !tbaa !4
  %43 = icmp eq i32 %42, 1
  br i1 %43, label %44, label %45

44:                                               ; preds = %41
  store i32 2, ptr %7, align 4
  br label %89

45:                                               ; preds = %41, %29
  %46 = load i32, ptr %6, align 4, !tbaa !4
  %47 = icmp ne i32 %46, 0
  br i1 %47, label %48, label %61

48:                                               ; preds = %45
  %49 = load i32, ptr %6, align 4, !tbaa !4
  %50 = call i32 (ptr, ...) @error(ptr noundef @.str.20, i32 noundef %49)
  %51 = call i32 @const_error()
  br label %52

52:                                               ; preds = %48
  %53 = load ptr, ptr %5, align 8, !tbaa !45
  call void @free(ptr noundef %53) #10
  store ptr null, ptr %5, align 8, !tbaa !45
  br label %54

54:                                               ; preds = %52
  br label %55

55:                                               ; preds = %54
  %56 = load i32, ptr @recover, align 4, !tbaa !4
  %57 = icmp ne i32 %56, 0
  br i1 %57, label %60, label %58

58:                                               ; preds = %55
  %59 = call i32 @common_exit(ptr noundef @.str.16, i32 noundef 139, i32 noundef 1)
  call void @exit(i32 noundef %59) #13
  unreachable

60:                                               ; preds = %55
  store i32 1, ptr @has_errors, align 4, !tbaa !4
  store i32 2, ptr %7, align 4
  br label %89

61:                                               ; preds = %45
  %62 = call ptr @fill(i32 noundef 1)
  %63 = getelementptr inbounds nuw %struct.git_zstream, ptr %3, i32 0, i32 5
  store ptr %62, ptr %63, align 8, !tbaa !89
  %64 = load i32, ptr @len, align 4, !tbaa !4
  %65 = zext i32 %64 to i64
  %66 = getelementptr inbounds nuw %struct.git_zstream, ptr %3, i32 0, i32 1
  store i64 %65, ptr %66, align 8, !tbaa !90
  %67 = load i32, ptr @dry_run, align 4, !tbaa !4
  %68 = icmp ne i32 %67, 0
  br i1 %68, label %69, label %88

69:                                               ; preds = %61
  %70 = load ptr, ptr %5, align 8, !tbaa !45
  %71 = getelementptr inbounds nuw %struct.git_zstream, ptr %3, i32 0, i32 6
  store ptr %70, ptr %71, align 8, !tbaa !84
  %72 = load i64, ptr %4, align 8, !tbaa !16
  %73 = load i64, ptr %2, align 8, !tbaa !16
  %74 = getelementptr inbounds nuw %struct.git_zstream, ptr %3, i32 0, i32 4
  %75 = load i64, ptr %74, align 8, !tbaa !91
  %76 = sub i64 %73, %75
  %77 = icmp ugt i64 %72, %76
  br i1 %77, label %78, label %83

78:                                               ; preds = %69
  %79 = load i64, ptr %2, align 8, !tbaa !16
  %80 = getelementptr inbounds nuw %struct.git_zstream, ptr %3, i32 0, i32 4
  %81 = load i64, ptr %80, align 8, !tbaa !91
  %82 = sub i64 %79, %81
  br label %85

83:                                               ; preds = %69
  %84 = load i64, ptr %4, align 8, !tbaa !16
  br label %85

85:                                               ; preds = %83, %78
  %86 = phi i64 [ %82, %78 ], [ %84, %83 ]
  %87 = getelementptr inbounds nuw %struct.git_zstream, ptr %3, i32 0, i32 2
  store i64 %86, ptr %87, align 8, !tbaa !88
  br label %88

88:                                               ; preds = %85, %61
  store i32 0, ptr %7, align 4
  br label %89

89:                                               ; preds = %88, %60, %44
  call void @llvm.lifetime.end.p0(i64 4, ptr %6) #10
  %90 = load i32, ptr %7, align 4
  switch i32 %90, label %102 [
    i32 0, label %91
    i32 2, label %92
  ]

91:                                               ; preds = %89
  br label %29

92:                                               ; preds = %89
  call void @git_inflate_end(ptr noundef %3)
  %93 = load i32, ptr @dry_run, align 4, !tbaa !4
  %94 = icmp ne i32 %93, 0
  br i1 %94, label %95, label %100

95:                                               ; preds = %92
  br label %96

96:                                               ; preds = %95
  %97 = load ptr, ptr %5, align 8, !tbaa !45
  call void @free(ptr noundef %97) #10
  store ptr null, ptr %5, align 8, !tbaa !45
  br label %98

98:                                               ; preds = %96
  br label %99

99:                                               ; preds = %98
  br label %100

100:                                              ; preds = %99, %92
  %101 = load ptr, ptr %5, align 8, !tbaa !45
  store i32 1, ptr %7, align 4
  call void @llvm.lifetime.end.p0(i64 8, ptr %5) #10
  call void @llvm.lifetime.end.p0(i64 8, ptr %4) #10
  call void @llvm.lifetime.end.p0(i64 160, ptr %3) #10
  ret ptr %101

102:                                              ; preds = %89
  unreachable
}