; Function Attrs: nounwind uwtable
define internal fastcc ptr @get_data(i64 noundef %0) unnamed_addr #0 {
  %2 = alloca %struct.git_zstream, align 8
  call void @llvm.lifetime.start.p0(i64 160, ptr nonnull %2) #14
  %.b23 = load i1, ptr @dry_run, align 4
  %3 = tail call i64 @llvm.umin.i64(i64 %0, i64 8192)
  %4 = select i1 %.b23, i64 %3, i64 %0
  %5 = tail call ptr @xmallocz(i64 noundef %4) #14
  call void @llvm.memset.p0.i64(ptr noundef nonnull align 8 dereferenceable(160) %2, i8 0, i64 144, i1 false)
  %6 = getelementptr inbounds nuw i8, ptr %2, i64 152
  store ptr %5, ptr %6, align 8, !tbaa !77
  %7 = getelementptr inbounds nuw i8, ptr %2, i64 120
  store i64 %4, ptr %7, align 8, !tbaa !81
  %8 = load i32, ptr @len, align 4, !tbaa !9
  %.not.i = icmp eq i32 %8, 0
  %9 = load i32, ptr @offset, align 4, !tbaa !9
  br i1 %.not.i, label %13, label %10

10:                                               ; preds = %1
  %11 = zext i32 %9 to i64
  %12 = getelementptr inbounds nuw i8, ptr @buffer, i64 %11
  br label %fill.exit

13:                                               ; preds = %1
  %.not10.i = icmp eq i32 %9, 0
  br i1 %.not10.i, label %.preheader68, label %14

14:                                               ; preds = %13
  %15 = load ptr, ptr @the_repository, align 8, !tbaa !4
  %16 = getelementptr inbounds nuw i8, ptr %15, i64 400
  %17 = load ptr, ptr %16, align 8, !tbaa !19
  %18 = getelementptr inbounds nuw i8, ptr %17, i64 56
  %19 = load ptr, ptr %18, align 8, !tbaa !40
  %20 = zext i32 %9 to i64
  tail call void %19(ptr noundef nonnull @ctx, ptr noundef nonnull @buffer, i64 noundef %20) #14
  %21 = load i32, ptr @offset, align 4, !tbaa !9
  %22 = zext i32 %21 to i64
  %23 = getelementptr inbounds nuw i8, ptr @buffer, i64 %22
  %24 = load i32, ptr @len, align 4, !tbaa !9
  %25 = zext i32 %24 to i64
  tail call void @llvm.memmove.p0.p0.i64(ptr nonnull align 16 @buffer, ptr nonnull align 1 %23, i64 %25, i1 false)
  store i32 0, ptr @offset, align 4, !tbaa !9
  br label %.preheader68

.preheader68:                                     ; preds = %14, %13
  %.ph69 = phi i64 [ 0, %13 ], [ %25, %14 ]
  br label %26

26:                                               ; preds = %.preheader68, %35
  %27 = phi i64 [ 0, %35 ], [ %.ph69, %.preheader68 ]
  %28 = getelementptr inbounds nuw i8, ptr @buffer, i64 %27
  %29 = sub nsw i64 4096, %27
  %30 = tail call i64 @xread(i32 noundef 0, ptr noundef nonnull %28, i64 noundef %29) #14
  %31 = icmp slt i64 %30, 1
  br i1 %31, label %32, label %35

32:                                               ; preds = %26
  %.not11.i = icmp eq i64 %30, 0
  br i1 %.not11.i, label %33, label %34

33:                                               ; preds = %32
  tail call void (ptr, ...) @die(ptr noundef nonnull @.str.37) #16
  unreachable

34:                                               ; preds = %32
  tail call void (ptr, ...) @die_errno(ptr noundef nonnull @.str.38) #16
  unreachable

35:                                               ; preds = %26
  %36 = load i32, ptr @len, align 4, !tbaa !9
  %37 = trunc i64 %30 to i32
  %38 = add i32 %36, %37
  store i32 %38, ptr @len, align 4, !tbaa !9
  %39 = icmp eq i32 %38, 0
  br i1 %39, label %26, label %fill.exit, !llvm.loop !41

fill.exit:                                        ; preds = %35, %10
  %40 = phi i32 [ %8, %10 ], [ %38, %35 ]
  %.0.i = phi ptr [ %12, %10 ], [ @buffer, %35 ]
  %41 = getelementptr inbounds nuw i8, ptr %2, i64 144
  store ptr %.0.i, ptr %41, align 8, !tbaa !82
  %42 = zext i32 %40 to i64
  %43 = getelementptr inbounds nuw i8, ptr %2, i64 112
  store i64 %42, ptr %43, align 8, !tbaa !83
  call void @git_inflate_init(ptr noundef nonnull %2) #14
  %44 = call i32 @git_inflate(ptr noundef nonnull %2, i32 noundef 0) #14
  %45 = load i32, ptr @len, align 4, !tbaa !9
  %46 = load i64, ptr %43, align 8, !tbaa !83
  %47 = trunc i64 %46 to i32
  %48 = sub i32 %45, %47
  call fastcc void @use(i32 noundef %48)
  %49 = getelementptr inbounds nuw i8, ptr %2, i64 136
  %50 = load i64, ptr %49, align 8, !tbaa !84
  %51 = icmp eq i64 %50, %0
  %52 = icmp eq i32 %44, 1
  %or.cond340 = select i1 %51, i1 %52, i1 false
  br i1 %or.cond340, label %.loopexit, label %.lr.ph

.lr.ph:                                           ; preds = %fill.exit, %98
  %53 = phi i32 [ %99, %98 ], [ %44, %fill.exit ]
  %.not = icmp eq i32 %53, 0
  br i1 %.not, label %59, label %54

54:                                               ; preds = %.lr.ph
  %55 = call i32 (ptr, ...) @error(ptr noundef nonnull @.str.20, i32 noundef %53) #14
  call void @free(ptr noundef %5) #14
  %.b24 = load i1, ptr @recover, align 4
  br i1 %.b24, label %58, label %56

56:                                               ; preds = %54
  %57 = call i32 @common_exit(ptr noundef nonnull @.str.16, i32 noundef 139, i32 noundef 1) #14
  call void @exit(i32 noundef %57) #16
  unreachable

58:                                               ; preds = %54
  store i1 true, ptr @has_errors, align 4
  br label %.loopexit

59:                                               ; preds = %.lr.ph
  %60 = load i32, ptr @len, align 4, !tbaa !9
  %.not.i25 = icmp eq i32 %60, 0
  %61 = load i32, ptr @offset, align 4, !tbaa !9
  br i1 %.not.i25, label %65, label %62

62:                                               ; preds = %59
  %63 = zext i32 %61 to i64
  %64 = getelementptr inbounds nuw i8, ptr @buffer, i64 %63
  br label %fill.exit29

65:                                               ; preds = %59
  %.not10.i27 = icmp eq i32 %61, 0
  br i1 %.not10.i27, label %.preheader, label %66

66:                                               ; preds = %65
  %67 = load ptr, ptr @the_repository, align 8, !tbaa !4
  %68 = getelementptr inbounds nuw i8, ptr %67, i64 400
  %69 = load ptr, ptr %68, align 8, !tbaa !19
  %70 = getelementptr inbounds nuw i8, ptr %69, i64 56
  %71 = load ptr, ptr %70, align 8, !tbaa !40
  %72 = zext i32 %61 to i64
  call void %71(ptr noundef nonnull @ctx, ptr noundef nonnull @buffer, i64 noundef %72) #14
  %73 = load i32, ptr @offset, align 4, !tbaa !9
  %74 = zext i32 %73 to i64
  %75 = getelementptr inbounds nuw i8, ptr @buffer, i64 %74
  %76 = load i32, ptr @len, align 4, !tbaa !9
  %77 = zext i32 %76 to i64
  call void @llvm.memmove.p0.p0.i64(ptr nonnull align 16 @buffer, ptr nonnull align 1 %75, i64 %77, i1 false)
  store i32 0, ptr @offset, align 4, !tbaa !9
  br label %.preheader

.preheader:                                       ; preds = %66, %65
  %.ph = phi i64 [ 0, %65 ], [ %77, %66 ]
  br label %78

78:                                               ; preds = %.preheader, %87
  %79 = phi i64 [ 0, %87 ], [ %.ph, %.preheader ]
  %80 = getelementptr inbounds nuw i8, ptr @buffer, i64 %79
  %81 = sub nsw i64 4096, %79
  %82 = call i64 @xread(i32 noundef 0, ptr noundef nonnull %80, i64 noundef %81) #14
  %83 = icmp slt i64 %82, 1
  br i1 %83, label %84, label %87

84:                                               ; preds = %78
  %.not11.i28 = icmp eq i64 %82, 0
  br i1 %.not11.i28, label %85, label %86

85:                                               ; preds = %84
  call void (ptr, ...) @die(ptr noundef nonnull @.str.37) #16
  unreachable

86:                                               ; preds = %84
  call void (ptr, ...) @die_errno(ptr noundef nonnull @.str.38) #16
  unreachable

87:                                               ; preds = %78
  %88 = load i32, ptr @len, align 4, !tbaa !9
  %89 = trunc i64 %82 to i32
  %90 = add i32 %88, %89
  store i32 %90, ptr @len, align 4, !tbaa !9
  %91 = icmp eq i32 %90, 0
  br i1 %91, label %78, label %fill.exit29, !llvm.loop !41

fill.exit29:                                      ; preds = %87, %62
  %92 = phi i32 [ %60, %62 ], [ %90, %87 ]
  %.0.i26 = phi ptr [ %64, %62 ], [ @buffer, %87 ]
  store ptr %.0.i26, ptr %41, align 8, !tbaa !82
  %93 = zext i32 %92 to i64
  store i64 %93, ptr %43, align 8, !tbaa !83
  %.b22 = load i1, ptr @dry_run, align 4
  br i1 %.b22, label %94, label %98

94:                                               ; preds = %fill.exit29
  store ptr %5, ptr %6, align 8, !tbaa !77
  %95 = load i64, ptr %49, align 8, !tbaa !84
  %96 = sub i64 %0, %95
  %97 = call i64 @llvm.umin.i64(i64 %4, i64 %96)
  store i64 %97, ptr %7, align 8, !tbaa !81
  br label %98

98:                                               ; preds = %fill.exit29, %94
  %99 = call i32 @git_inflate(ptr noundef nonnull %2, i32 noundef 0) #14
  %100 = load i32, ptr @len, align 4, !tbaa !9
  %101 = load i64, ptr %43, align 8, !tbaa !83
  %102 = trunc i64 %101 to i32
  %103 = sub i32 %100, %102
  call fastcc void @use(i32 noundef %103)
  %104 = load i64, ptr %49, align 8, !tbaa !84
  %105 = icmp eq i64 %104, %0
  %106 = icmp eq i32 %99, 1
  %or.cond3 = select i1 %105, i1 %106, i1 false
  br i1 %or.cond3, label %.loopexit, label %.lr.ph

.loopexit:                                        ; preds = %98, %fill.exit, %58
  %.1.ph = phi ptr [ null, %58 ], [ %5, %fill.exit ], [ %5, %98 ]
  call void @git_inflate_end(ptr noundef nonnull %2) #14
  %.b = load i1, ptr @dry_run, align 4
  br i1 %.b, label %107, label %108

107:                                              ; preds = %.loopexit
  call void @free(ptr noundef %.1.ph) #14
  br label %108

108:                                              ; preds = %107, %.loopexit
  %.2 = phi ptr [ null, %107 ], [ %.1.ph, %.loopexit ]
  call void @llvm.lifetime.end.p0(i64 160, ptr nonnull %2) #14
  ret ptr %.2
}